; Function Attrs: nounwind uwtable
define i32 @SSL_CTX_load_verify_store(ptr noundef readonly captures(none) %0, ptr noundef %1) local_unnamed_addr #0 {
  %3 = getelementptr inbounds nuw i8, ptr %0, i64 40
  %4 = load ptr, ptr %3, align 8, !tbaa !290
  %5 = load ptr, ptr %0, align 8, !tbaa !446
  %6 = getelementptr inbounds nuw i8, ptr %0, i64 1152
  %7 = load ptr, ptr %6, align 8, !tbaa !329
  %8 = tail call i32 @X509_STORE_load_store_ex(ptr noundef %4, ptr noundef %1, ptr noundef %5, ptr noundef %7) #20
  ret i32 %8
}